
build/obj/bootloader.o:     file format elf64-x86-64


Disassembly of section .text:

0000000000007c00 <boot_begin>:
    7c00:	ea                   	(bad)  
    7c01:	05 7c 00 00        	add    $0xfa00007c,%eax

0000000000007c05 <__start_16>:
    7c05:	fa                   	cli    
    7c06:	31 c0                	xor    %eax,%eax
    7c08:	8e d8                	mov    %eax,%ds
    7c0a:	8e c0                	mov    %eax,%es
    7c0c:	8e e0                	mov    %eax,%fs
    7c0e:	8e e8                	mov    %eax,%gs
    7c10:	89 c5                	mov    %eax,%ebp
    7c12:	8e d0                	mov    %eax,%ss
    7c14:	89 ec                	mov    %ebp,%esp
    7c16:	6a 01                	pushq  $0x1
    7c18:	6a 02                	pushq  $0x2
    7c1a:	6a 00                	pushq  $0x0
    7c1c:	68 00 7e         	pushq  $0x3b97e00

0000000000007c1f <loop>:
    7c1f:	b9 03 00 66 89       	mov    $0x89660003,%ecx
    7c24:	e6 e8                	out    %al,$0xe8
    7c26:	19 01                	sbb    %eax,(%rcx)
    7c28:	e8 56 01 b9 17       	callq  17b97d83 <message+0x17b8feb1>
    7c2d:	00 67 8b             	add    %ah,-0x75(%rdi)
    7c30:	34 24                	xor    $0x24,%al
    7c32:	e8 40 01 b4 00       	callq  b47d77 <message+0xb3fea5>
    7c37:	cd 16                	int    $0x16
    7c39:	e8 52 01 3c 77       	callq  773c7d90 <message+0x773bfebe>
    7c3e:	74 38                	je     7c78 <w_pressed>
    7c40:	3c 73                	cmp    $0x73,%al
    7c42:	74 3c                	je     7c80 <s_pressed>
    7c44:	3c 65                	cmp    $0x65,%al
    7c46:	74 40                	je     7c88 <e_pressed>
    7c48:	3c 64                	cmp    $0x64,%al
    7c4a:	74 43                	je     7c8f <d_pressed>
    7c4c:	3c 72                	cmp    $0x72,%al
    7c4e:	74 46                	je     7c96 <r_pressed>
    7c50:	3c 66                	cmp    $0x66,%al
    7c52:	74 49                	je     7c9d <f_pressed>
    7c54:	3c 74                	cmp    $0x74,%al
    7c56:	74 4c                	je     7ca4 <t_pressed>
    7c58:	3c 67                	cmp    $0x67,%al
    7c5a:	74 4f                	je     7cab <g_pressed>
    7c5c:	3c 6c                	cmp    $0x6c,%al
    7c5e:	74 6e                	je     7cce <l_pressed>
    7c60:	3c 6a                	cmp    $0x6a,%al
    7c62:	0f 84 85 00 3c 7a    	je     7a3c7ced <message+0x7a3bfe1b>
    7c68:	74 48                	je     7cb2 <z_pressed>
    7c6a:	3c 78                	cmp    $0x78,%al
    7c6c:	74 4a                	je     7cb8 <x_pressed>
    7c6e:	3c 71                	cmp    $0x71,%al
    7c70:	74 4c                	je     7cbe <q_pressed>
    7c72:	3c 61                	cmp    $0x61,%al
    7c74:	74 50                	je     7cc6 <a_pressed>
    7c76:	eb 79                	jmp    7cf1 <continue_loop>

0000000000007c78 <w_pressed>:
    7c78:	67 81 2c 24 94 02 eb 	subl   $0x71eb0294,(%esp)
    7c7f:	71 

0000000000007c80 <s_pressed>:
    7c80:	67 81 04 24 94 02 eb 	addl   $0x69eb0294,(%esp)
    7c87:	69 

0000000000007c88 <e_pressed>:
    7c88:	67 ff 44 24 02       	incl   0x2(%esp)
    7c8d:	eb 62                	jmp    7cf1 <continue_loop>

0000000000007c8f <d_pressed>:
    7c8f:	67 ff 4c 24 02       	decl   0x2(%esp)
    7c94:	eb 5b                	jmp    7cf1 <continue_loop>

0000000000007c96 <r_pressed>:
    7c96:	67 ff 44 24 04       	incl   0x4(%esp)
    7c9b:	eb 54                	jmp    7cf1 <continue_loop>

0000000000007c9d <f_pressed>:
    7c9d:	67 ff 4c 24 04       	decl   0x4(%esp)
    7ca2:	eb 4d                	jmp    7cf1 <continue_loop>

0000000000007ca4 <t_pressed>:
    7ca4:	67 ff 44 24 06       	incl   0x6(%esp)
    7ca9:	eb 46                	jmp    7cf1 <continue_loop>

0000000000007cab <g_pressed>:
    7cab:	67 ff 4c 24 06       	decl   0x6(%esp)
    7cb0:	eb 3f                	jmp    7cf1 <continue_loop>

0000000000007cb2 <z_pressed>:
    7cb2:	67 ff 04 24          	incl   (%esp)
    7cb6:	eb 39                	jmp    7cf1 <continue_loop>

0000000000007cb8 <x_pressed>:
    7cb8:	67 ff 0c 24          	decl   (%esp)
    7cbc:	eb 33                	jmp    7cf1 <continue_loop>

0000000000007cbe <q_pressed>:
    7cbe:	67 81 2c 24 1e 00 eb 	subl   $0x2beb001e,(%esp)
    7cc5:	2b 

0000000000007cc6 <a_pressed>:
    7cc6:	67 81 04 24 1e 00 eb 	addl   $0x23eb001e,(%esp)
    7ccd:	23 

0000000000007cce <l_pressed>:
    7cce:	b4 02                	mov    $0x2,%ah
    7cd0:	67 8a 44 24 06       	mov    0x6(%esp),%al
    7cd5:	67 8a 54 24 02       	mov    0x2(%esp),%dl
    7cda:	b5 00                	mov    $0x0,%ch
    7cdc:	b6 00                	mov    $0x0,%dh
    7cde:	67 8a 4c 24 04       	mov    0x4(%esp),%cl
    7ce3:	67 8b 1c 24          	mov    (%esp),%ebx
    7ce7:	cd 13                	int    $0x13
    7ce9:	eb 06                	jmp    7cf1 <continue_loop>

0000000000007ceb <j_pressed>:
    7ceb:	58                   	pop    %rax
    7cec:	bc 00 00 ff e0       	mov    $0xe0ff0000,%esp

0000000000007cf1 <continue_loop>:
    7cf1:	e9 2b ff         	jmpq   a3d7c21 <message+0xa3cfd4f>

0000000000007cf4 <debugnibble>:
    7cf4:	3c 0a                	cmp    $0xa,%al
    7cf6:	7c 04                	jl     7cfc <debughex_digit>

0000000000007cf8 <debughex_letter>:
    7cf8:	04 37                	add    $0x37,%al
    7cfa:	eb 02                	jmp    7cfe <end>

0000000000007cfc <debughex_digit>:
    7cfc:	04 30                	add    $0x30,%al

0000000000007cfe <end>:
    7cfe:	b4 0e                	mov    $0xe,%ah
    7d00:	cd 10                	int    $0x10
    7d02:	c3                   	retq   

0000000000007d03 <debughexb>:
    7d03:	50                   	push   %rax
    7d04:	c0 e8 04             	shr    $0x4,%al
    7d07:	e8 ea ff 67 8b       	callq  ffffffff8b687cf6 <message+0xffffffff8b67fe24>
    7d0c:	04 24                	add    $0x24,%al
    7d0e:	24 0f                	and    $0xf,%al
    7d10:	e8 e1 ff 58 c3       	callq  ffffffffc3597cf6 <message+0xffffffffc358fe24>

0000000000007d15 <debughexw>:
    7d15:	50                   	push   %rax
    7d16:	88 e0                	mov    %ah,%al
    7d18:	e8 e8 ff 58 e8       	callq  ffffffffe8597d05 <message+0xffffffffe858fe33>
    7d1d:	e4 ff                	in     $0xff,%al
    7d1f:	c3                   	retq   

0000000000007d20 <debughexab>:
    7d20:	83 f9 00             	cmp    $0x0,%ecx
    7d23:	74 13                	je     7d38 <debughexab_end>

0000000000007d25 <debughexab_loop>:
    7d25:	ac                   	lods   %ds:(%rsi),%al
    7d26:	e8 da ff ac e8       	callq  ffffffffe8ad7d05 <message+0xffffffffe8acfe33>
    7d2b:	d6                   	(bad)  
    7d2c:	ff 50 b0             	callq  *-0x50(%rax)
    7d2f:	20 b4 0e cd 10 58 49 	and    %dh,0x495810cd(%rsi,%rcx,1)
    7d36:	75 ed                	jne    7d25 <debughexab_loop>

0000000000007d38 <debughexab_end>:
    7d38:	ac                   	lods   %ds:(%rsi),%al
    7d39:	e8 c7 ff ac e8       	callq  ffffffffe8ad7d05 <message+0xffffffffe8acfe33>
    7d3e:	c3                   	retq   
    7d3f:	ff c3                	inc    %ebx

0000000000007d41 <debughexaw>:
    7d41:	83 f9 00             	cmp    $0x0,%ecx
    7d44:	74 0f                	je     7d55 <debughexaw_end>

0000000000007d46 <debughexaw_loop>:
    7d46:	ad                   	lods   %ds:(%rsi),%eax
    7d47:	e8 cb ff 50 b0       	callq  ffffffffb0517d17 <message+0xffffffffb050fe45>
    7d4c:	20 b4 0e cd 10 58 49 	and    %dh,0x495810cd(%rsi,%rcx,1)
    7d53:	75 f1                	jne    7d46 <debughexaw_loop>

0000000000007d55 <debughexaw_end>:
    7d55:	ad                   	lods   %ds:(%rsi),%eax
    7d56:	e8 bc ff c3        	callq  50c47d17 <message+0x50c3fe45>

0000000000007d5a <debughexline>:
    7d5a:	50                   	push   %rax
    7d5b:	51                   	push   %rcx
    7d5c:	89 f0                	mov    %esi,%eax
    7d5e:	e8 b4 ff 50 b0       	callq  ffffffffb0517d17 <message+0xffffffffb050fe45>
    7d63:	3a b4 0e cd 10 58 b9 	cmp    -0x46a7ef33(%rsi,%rcx,1),%dh
    7d6a:	0e                   	(bad)  
    7d6b:	00 e8                	add    %ch,%al
    7d6d:	b1 ff                	mov    $0xff,%cl
    7d6f:	e8 0f 00 59 58       	callq  58597d83 <message+0x5858feb1>
    7d74:	c3                   	retq   

0000000000007d75 <debughexlines>:
    7d75:	83 f9 00             	cmp    $0x0,%ecx
    7d78:	74 06                	je     7d80 <debughexlines_end>

0000000000007d7a <debughexlines_loop>:
    7d7a:	e8 dd ff 49 75       	callq  754a7d5c <message+0x7549fe8a>
    7d7f:	fa                   	cli    

0000000000007d80 <debughexlines_end>:
    7d80:	c3                   	retq   

0000000000007d81 <println>:
    7d81:	50                   	push   %rax
    7d82:	b4 0e                	mov    $0xe,%ah
    7d84:	b0 0a                	mov    $0xa,%al
    7d86:	cd 10                	int    $0x10
    7d88:	b0 0d                	mov    $0xd,%al
    7d8a:	cd 10                	int    $0x10
    7d8c:	58                   	pop    %rax
    7d8d:	c3                   	retq   

0000000000007d8e <clear>:
    7d8e:	50                   	push   %rax
    7d8f:	53                   	push   %rbx
    7d90:	51                   	push   %rcx
    7d91:	52                   	push   %rdx
    7d92:	b8 00 06 b7 07       	mov    $0x7b70600,%eax
    7d97:	b9 00 00 ba 4f       	mov    $0x4fba0000,%ecx
    7d9c:	18 cd                	sbb    %cl,%ch
    7d9e:	10 b6 00 b2 00 b4    	adc    %dh,-0x4bff4e00(%rsi)
    7da4:	02 b7 00 cd 10 5a    	add    0x5a10cd00(%rdi),%dh
    7daa:	59                   	pop    %rcx
    7dab:	5b                   	pop    %rbx
    7dac:	58                   	pop    %rax
    7dad:	c3                   	retq   

Disassembly of section .sig:

0000000000007dfe <_GLOBAL_OFFSET_TABLE_+0x4e>:
    7dfe:	55                   	push   %rbp
    7dff:	aa                   	stos   %al,%es:(%rdi)
    7e00:	fa                   	cli    
    7e01:	31 c0                	xor    %eax,%eax
    7e03:	8e d8                	mov    %eax,%ds
    7e05:	8e c0                	mov    %eax,%es
    7e07:	8e e0                	mov    %eax,%fs
    7e09:	8e e8                	mov    %eax,%gs
    7e0b:	89 c5                	mov    %eax,%ebp
    7e0d:	8e d0                	mov    %eax,%ss
    7e0f:	89 ec                	mov    %ebp,%esp
    7e11:	88 16                	mov    %dl,(%rsi)
    7e13:	17                   	(bad)  
    7e14:	7e eb                	jle    7e01 <__afterboot_begin_ld+0x1>
    7e16:	01                 	add    %eax,(%rax)

0000000000007e17 <initial_dl>:
	...

0000000000007e18 <after_locals>:
    7e18:	50                   	push   %rax
    7e19:	53                   	push   %rbx
    7e1a:	51                   	push   %rcx
    7e1b:	52                   	push   %rdx
    7e1c:	b8 00 06 b7 07       	mov    $0x7b70600,%eax
    7e21:	b9 00 00 ba 4f       	mov    $0x4fba0000,%ecx
    7e26:	18 cd                	sbb    %cl,%ch
    7e28:	10 50 53             	adc    %dl,0x53(%rax)
    7e2b:	51                   	push   %rcx
    7e2c:	52                   	push   %rdx
    7e2d:	b4 02                	mov    $0x2,%ah
    7e2f:	b7 00                	mov    $0x0,%bh
    7e31:	b6 00                	mov    $0x0,%dh
    7e33:	b2 00                	mov    $0x0,%dl
    7e35:	cd 10                	int    $0x10
    7e37:	5a                   	pop    %rdx
    7e38:	59                   	pop    %rcx
    7e39:	5b                   	pop    %rbx
    7e3a:	58                   	pop    %rax
    7e3b:	5a                   	pop    %rdx
    7e3c:	59                   	pop    %rcx
    7e3d:	5b                   	pop    %rbx
    7e3e:	58                   	pop    %rax
    7e3f:	0f 01 16             	lgdt   (%rsi)
    7e42:	6b 7e 0f 20          	imul   $0x20,0xf(%rsi),%edi
    7e46:	c0 66 83 c8          	shlb   $0xc8,-0x7d(%rsi)
    7e4a:	01 0f                	add    %ecx,(%rdi)
    7e4c:	22 c0                	and    %al,%al
    7e4e:	ea                   	(bad)  
    7e4f:	75 7e                	jne    7ecf <end+0x9>
    7e51:	08 00                	or     %al,(%rax)

0000000000007e53 <gdt_null>:
	...

0000000000007e5b <gdt_code>:
    7e5b:	ff                   	(bad)  
    7e5c:	ff 00                	incl   (%rax)
    7e5e:	00 00                	add    %al,(%rax)
    7e60:	9a                   	(bad)  
    7e61:	cf                   	iret   
	...

0000000000007e63 <gdt_data>:
    7e63:	ff                   	(bad)  
    7e64:	ff 00                	incl   (%rax)
    7e66:	00 00                	add    %al,(%rax)
    7e68:	92                   	xchg   %eax,%edx
    7e69:	cf                   	iret   
	...

0000000000007e6b <gdt_descriptor>:
    7e6b:	18 00                	sbb    %al,(%rax)
    7e6d:	53                   	push   %rbx
    7e6e:	7e 00                	jle    7e70 <gdt_descriptor+0x5>
	...

0000000000007e71 <vga_current_line>:
    7e71:	00 00                	add    %al,(%rax)
	...

0000000000007e75 <protected_mode>:
    7e75:	66 b8 10 00          	mov    $0x10,%ax
    7e79:	8e d8                	mov    %eax,%ds
    7e7b:	8e c0                	mov    %eax,%es
    7e7d:	8e e0                	mov    %eax,%fs
    7e7f:	8e e8                	mov    %eax,%gs
    7e81:	8e d0                	mov    %eax,%ss
    7e83:	bd 00 70 00 00       	mov    $0x7000,%ebp
    7e88:	89 ec                	mov    %ebp,%esp
    7e8a:	50                   	push   %rax
    7e8b:	53                   	push   %rbx
    7e8c:	51                   	push   %rcx
    7e8d:	52                   	push   %rdx
    7e8e:	b9 d2 7e 00 00       	mov    $0x7ed2,%ecx
    7e93:	a1 71 7e 00 00 ba 00 	movabs 0xba00007e71,%eax
    7e9a:	00 00 
    7e9c:	00 bb 19 00 00 00    	add    %bh,0x19(%rbx)
    7ea2:	f7 f3                	div    %ebx
    7ea4:	89 d0                	mov    %edx,%eax
    7ea6:	ba a0 00 00 00       	mov    $0xa0,%edx
    7eab:	f7 e2                	mul    %edx
    7ead:	8d 90 00 80 0b 00    	lea    0xb8000(%rax),%edx
    7eb3:	b4 0f                	mov    $0xf,%ah

0000000000007eb5 <loop>:
    7eb5:	8a 01                	mov    (%rcx),%al
    7eb7:	3c 00                	cmp    $0x0,%al
    7eb9:	74 0b                	je     7ec6 <end>
    7ebb:	66 89 02             	mov    %ax,(%rdx)
    7ebe:	83 c1 01             	add    $0x1,%ecx
    7ec1:	83 c2 02             	add    $0x2,%edx
    7ec4:	eb ef                	jmp    7eb5 <loop>

0000000000007ec6 <end>:
    7ec6:	ff 05 71 7e 00 00    	incl   0x7e71(%rip)        # fd3d <message+0x7e6b>
    7ecc:	5a                   	pop    %rdx
    7ecd:	59                   	pop    %rcx
    7ece:	5b                   	pop    %rbx
    7ecf:	58                   	pop    %rax
    7ed0:	eb fe                	jmp    7ed0 <end+0xa>

0000000000007ed2 <message>:
    7ed2:	68 65 6c 6c 6f       	pushq  $0x6f6c6c65
    7ed7:	20 70 72             	and    %dh,0x72(%rax)
    7eda:	6f                   	outsl  %ds:(%rsi),(%dx)
    7edb:	74 65                	je     7f42 <message+0x70>
    7edd:	63 74 65 64          	movslq 0x64(%rbp,%riz,2),%esi
    7ee1:	20 6d 6f             	and    %ch,0x6f(%rbp)
    7ee4:	64                   	fs
    7ee5:	65                   	gs
	...

Disassembly of section .sig2:

0000000000007ee7 <.sig2>:
    7ee7:	66                   	data16
    7ee8:	bb                   	.byte 0xbb
